; Function Attrs: mustprogress uwtable
define noundef double @_ZN7xgboost6common6ReduceEPKNS_7ContextERKNS_16HostDeviceVectorIfEE(ptr noundef %0, ptr noundef nonnull align 8 dereferenceable(8) %1) local_unnamed_addr #3 personality ptr @__gxx_personality_v0 {
  %3 = alloca %"class.dmlc::LogMessageFatal", align 1
  %4 = alloca double, align 8
  %5 = getelementptr inbounds nuw i8, ptr %0, i64 40
  %.sroa.0.0.copyload.i.i = load i32, ptr %5, align 8
  %6 = and i32 %.sroa.0.0.copyload.i.i, 65535
  %7 = icmp eq i32 %6, 1
  br i1 %7, label %8, label %18

8:                                                ; preds = %2
  call void @llvm.lifetime.start.p0(i64 1, ptr nonnull %3) #11
  %9 = call noundef nonnull align 8 dereferenceable(376) ptr @_ZN4dmlc15LogMessageFatal8GetEntryEv(ptr noundef nonnull align 1 dereferenceable(1) %3)
  call void @_ZN4dmlc15LogMessageFatal5Entry4InitEPKci(ptr noundef nonnull align 8 dereferenceable(376) %9, ptr noundef nonnull @.str, i32 noundef 168)
  %10 = invoke noundef nonnull align 8 dereferenceable(376) ptr @_ZN4dmlc15LogMessageFatal8GetEntryEv(ptr noundef nonnull align 1 dereferenceable(1) %3)
          to label %_ZN4dmlc15LogMessageFatal6streamB5cxx11Ev.exit.i.i unwind label %12

_ZN4dmlc15LogMessageFatal6streamB5cxx11Ev.exit.i.i: ; preds = %8
  %11 = invoke noundef nonnull align 8 dereferenceable(8) ptr @_ZSt16__ostream_insertIcSt11char_traitsIcEERSt13basic_ostreamIT_T0_ES6_PKS3_l(ptr noundef nonnull align 8 dereferenceable(8) %10, ptr noundef nonnull @.str.1, i64 noundef 46)
          to label %_ZN7xgboost6common9cuda_impl6ReduceEPKNS_7ContextERKNS_16HostDeviceVectorIfEE.exit unwind label %12

12:                                               ; preds = %_ZN4dmlc15LogMessageFatal6streamB5cxx11Ev.exit.i.i, %8
  %13 = landingpad { ptr, i32 }
          cleanup
  invoke void @_ZN4dmlc15LogMessageFatalD2Ev(ptr noundef nonnull align 1 dereferenceable(1) %3)
          to label %14 unwind label %15

14:                                               ; preds = %12
  call void @llvm.lifetime.end.p0(i64 1, ptr nonnull %3) #11
  resume { ptr, i32 } %13

15:                                               ; preds = %12
  %16 = landingpad { ptr, i32 }
          catch ptr null
  %17 = extractvalue { ptr, i32 } %16, 0
  call void @__clang_call_terminate(ptr %17) #28
  unreachable

_ZN7xgboost6common9cuda_impl6ReduceEPKNS_7ContextERKNS_16HostDeviceVectorIfEE.exit: ; preds = %_ZN4dmlc15LogMessageFatal6streamB5cxx11Ev.exit.i.i
  call void @_ZN4dmlc15LogMessageFatalD2Ev(ptr noundef nonnull align 1 dereferenceable(1) %3)
  call void @llvm.lifetime.end.p0(i64 1, ptr nonnull %3) #11
  br label %24

18:                                               ; preds = %2
  %19 = tail call noundef nonnull align 8 dereferenceable(24) ptr @_ZNK7xgboost16HostDeviceVectorIfE15ConstHostVectorEv(ptr noundef nonnull align 8 dereferenceable(8) %1)
  %20 = load ptr, ptr %19, align 8, !tbaa !3
  %21 = getelementptr inbounds nuw i8, ptr %19, i64 8
  %22 = load ptr, ptr %21, align 8, !tbaa !3
  call void @llvm.lifetime.start.p0(i64 8, ptr nonnull %4) #11
  store double 0.000000e+00, ptr %4, align 8, !tbaa !8
  %23 = call noundef double @_ZN7xgboost6common8cpu_impl6ReduceIN9__gnu_cxx17__normal_iteratorIPKfSt6vectorIfSaIfEEEEdEET0_PKNS_7ContextET_SF_RKSB_(ptr noundef nonnull %0, ptr %20, ptr %22, ptr noundef nonnull align 8 dereferenceable(8) %4)
  call void @llvm.lifetime.end.p0(i64 8, ptr nonnull %4) #11
  br label %24

24:                                               ; preds = %18, %_ZN7xgboost6common9cuda_impl6ReduceEPKNS_7ContextERKNS_16HostDeviceVectorIfEE.exit
  %.0 = phi double [ 0.000000e+00, %_ZN7xgboost6common9cuda_impl6ReduceEPKNS_7ContextERKNS_16HostDeviceVectorIfEE.exit ], [ %23, %18 ]
  ret double %.0
}